Certificate:
    Data:
        Version: 3 (0x2)
        Serial Number: 2 (0x2)
        Signature Algorithm: sha256WithRSAEncryption
        Issuer: C=FR, ST=Radius, L=Somewhere, O=Example Inc./emailAddress=admin@example.org, CN=Example Certificate Authority
        Validity
            Not Before: Apr 27 10:17:21 2026 GMT
            Not After : Jun 26 10:17:21 2026 GMT
        Subject: C=FR, ST=Radius, O=Example Inc., CN=user@example.org/emailAddress=user@example.org
        Subject Public Key Info:
            Public Key Algorithm: rsaEncryption
                Public-Key: (4096 bit)
                Modulus:
                    00:83:78:b0:06:17:6a:2f:7e:d5:08:60:e2:40:ef:
                    18:bd:bc:b6:27:19:a0:93:23:ae:ad:96:33:a4:bf:
                    4c:f9:2e:59:31:60:ae:5a:89:d2:6f:1f:7f:7d:aa:
                    bb:bc:7b:ef:0a:c3:c7:74:a0:e5:fa:11:d8:1a:3b:
                    99:54:f8:75:90:63:29:5f:5c:11:e2:a3:9e:8c:ab:
                    e4:f9:0c:f0:08:92:4a:12:7b:ad:5c:47:2f:95:7f:
                    0b:68:43:0a:26:c7:3c:cc:7e:56:d6:f2:92:cc:7a:
                    0c:2e:ab:c6:de:7c:85:79:a8:86:da:10:49:4c:74:
                    aa:fb:54:07:e5:99:4e:91:f0:bc:09:23:5f:2d:80:
                    a7:78:0e:ae:ef:d9:d1:15:78:88:44:29:88:71:46:
                    5b:52:cd:42:c2:c7:d1:7a:c9:c5:89:eb:a5:45:3f:
                    b5:56:2f:ee:88:f4:5f:00:db:a7:87:f7:b6:f1:08:
                    0e:24:ec:e5:d8:b9:6d:9d:8e:87:2a:0c:dd:6f:51:
                    96:0a:93:af:df:07:29:c2:df:84:11:da:48:6e:06:
                    ff:cb:36:90:cd:ae:e8:e0:db:60:66:5f:43:29:f2:
                    ae:7c:b7:c4:77:97:83:4c:68:5d:32:b0:5c:a3:3f:
                    e1:e4:d7:d5:38:94:c3:0c:cb:e5:d4:98:82:3b:18:
                    1d:4c:d3:db:be:81:8e:e6:2a:23:4b:da:d7:f6:38:
                    ea:2c:6c:9f:7f:8f:b1:65:a8:26:ff:ca:11:4f:5e:
                    55:aa:58:21:ab:59:09:92:77:ec:11:ec:87:3e:17:
                    56:ce:6e:d9:87:dc:b1:9f:24:c9:0c:d4:1c:25:42:
                    d4:c1:67:c1:e8:fd:47:69:b6:63:23:4b:5b:b3:65:
                    ab:9c:21:ea:fa:6e:3c:44:8f:e1:6d:38:b5:2b:9a:
                    15:fb:b8:c8:d2:10:99:95:46:f1:81:c0:e9:e0:84:
                    7c:f7:82:a7:c7:4c:2f:7e:b5:d7:24:03:bb:58:b7:
                    d6:a3:c1:f5:94:73:02:c3:92:5e:5a:40:d6:5c:9b:
                    ae:6d:bf:8f:40:c6:14:1a:e6:37:ec:13:5e:88:e9:
                    40:71:97:99:07:5e:52:2b:f5:d0:d8:36:4c:08:b7:
                    d5:80:44:39:98:1d:09:2b:1f:f4:78:9a:ec:50:20:
                    a1:8b:67:07:b0:72:d4:fd:b5:b1:3e:21:c8:94:a9:
                    77:0b:b0:29:36:79:dd:e1:24:b2:8d:90:0d:5e:e2:
                    08:8e:db:ac:db:90:f9:66:54:65:6b:18:79:5b:ba:
                    f1:c2:f6:2d:86:a7:05:6a:5a:e4:d1:8c:04:33:95:
                    38:d1:e5:18:46:36:1a:0c:9c:c3:48:a1:f0:74:e2:
                    53:62:b5
                Exponent: 65537 (0x10001)
        X509v3 extensions:
            X509v3 Extended Key Usage: 
                TLS Web Client Authentication
            X509v3 CRL Distribution Points: 
                Full Name:
                  URI:http://www.example.com/example_ca.crl

            X509v3 Subject Key Identifier: 
                4B:42:D4:85:F0:13:9C:5A:75:F1:B6:8C:72:0F:05:4D:59:1E:3E:C4
            X509v3 Authority Key Identifier: 
                7E:4C:90:40:0E:D8:55:FD:1A:B6:68:EF:28:94:C2:9E:5F:0D:2A:BD
    Signature Algorithm: sha256WithRSAEncryption
    Signature Value:
        00:24:ef:74:69:23:12:da:f8:fc:f2:2a:9d:a2:10:20:74:a6:
        be:ee:f2:b8:ea:7f:6d:f6:d4:6c:c6:d1:11:f5:69:b8:0b:8f:
        75:81:d7:b4:a1:ff:c8:07:23:b9:5f:9a:f6:05:89:c6:8a:08:
        1a:59:36:f0:38:0e:11:4f:c3:0d:d6:3a:e2:2b:a4:48:e7:17:
        63:e8:ec:05:9e:7a:6c:df:18:2a:b8:b1:58:54:ff:62:3e:93:
        45:08:c1:30:67:52:38:ae:59:5a:be:97:53:ae:8e:4c:51:ad:
        0e:3e:45:4f:ac:8d:53:88:62:b6:d7:8d:de:8a:13:ba:6f:46:
        f3:19:bc:34:bc:9d:98:a4:b0:26:33:ad:44:c5:ff:df:d5:9f:
        e1:b2:ee:3f:3e:37:6a:e8:40:ce:1c:6a:ab:c4:e8:dd:45:87:
        6d:d7:a9:d5:b5:d3:79:26:6a:0b:56:7f:13:3f:69:3c:e1:25:
        22:c8:b1:cd:16:d1:e7:1e:e8:da:12:f4:99:93:96:ab:dd:4e:
        e1:40:6c:85:5e:4d:a1:6e:d1:f0:93:8e:38:3d:33:96:f2:fd:
        f5:8c:1f:d8:ae:f9:27:e6:30:c4:1c:79:dc:58:39:9b:aa:25:
        1a:c7:db:1e:f0:31:2d:63:2c:a3:78:57:9b:64:90:c7:03:14:
        d7:fb:02:00:50:eb:aa:bd:a1:3c:1b:cd:5b:cf:13:07:60:a2:
        49:24:53:a2:ae:4c:e4:a9:0e:9a:f2:11:91:0f:87:2f:8c:1f:
        0a:53:cd:f5:10:0e:b7:18:0a:88:ba:ce:98:7c:42:70:e1:36:
        54:d9:1e:6c:24:95:37:be:b3:16:23:d5:5e:c1:b4:d1:d9:15:
        0d:17:9a:5f:9e:10:11:54:b6:a2:cf:87:f7:ab:d8:4c:eb:bc:
        3e:20:82:ea:b4:8d:e7:c8:f5:d5:25:8a:7a:1f:fe:38:d3:f1:
        50:59:5d:7b:b5:66:7e:4f:ec:fd:8c:0b:66:c9:36:80:e7:fa:
        87:dc:ba:2d:cd:c2:5c:6a:3e:0f:b1:0d:58:38:b4:e0:1f:7f:
        d5:c8:44:21:e7:ef:ad:e4:c0:9a:ce:49:43:90:5b:c1:05:f4:
        75:35:2a:84:cd:45:fa:5e:7f:99:fd:d4:4e:af:37:16:90:35:
        7b:e3:86:db:34:d0:05:51:0f:50:14:b2:ee:92:35:7f:a9:cd:
        f1:f3:33:e8:c4:2c:d3:10:9b:1f:96:c6:7a:86:7d:bc:71:01:
        44:22:4b:e1:c8:4f:44:21:1d:0a:86:21:f3:26:20:b1:ce:33:
        1f:d2:66:22:df:7b:84:08:1d:e6:84:26:96:f7:2d:01:a1:b4:
        4d:dc:eb:71:11:74:39:07
-----BEGIN CERTIFICATE-----
MIIGETCCA/mgAwIBAgIBAjANBgkqhkiG9w0BAQsFADCBkzELMAkGA1UEBhMCRlIx
DzANBgNVBAgMBlJhZGl1czESMBAGA1UEBwwJU29tZXdoZXJlMRUwEwYDVQQKDAxF
eGFtcGxlIEluYy4xIDAeBgkqhkiG9w0BCQEWEWFkbWluQGV4YW1wbGUub3JnMSYw
JAYDVQQDDB1FeGFtcGxlIENlcnRpZmljYXRlIEF1dGhvcml0eTAeFw0yNjA0Mjcx
MDE3MjFaFw0yNjA2MjYxMDE3MjFaMHExCzAJBgNVBAYTAkZSMQ8wDQYDVQQIDAZS
YWRpdXMxFTATBgNVBAoMDEV4YW1wbGUgSW5jLjEZMBcGA1UEAwwQdXNlckBleGFt
cGxlLm9yZzEfMB0GCSqGSIb3DQEJARYQdXNlckBleGFtcGxlLm9yZzCCAiIwDQYJ
KoZIhvcNAQEBBQADggIPADCCAgoCggIBAIN4sAYXai9+1Qhg4kDvGL28ticZoJMj
rq2WM6S/TPkuWTFgrlqJ0m8ff32qu7x77wrDx3Sg5foR2Bo7mVT4dZBjKV9cEeKj
noyr5PkM8AiSShJ7rVxHL5V/C2hDCibHPMx+Vtbyksx6DC6rxt58hXmohtoQSUx0
qvtUB+WZTpHwvAkjXy2Ap3gOru/Z0RV4iEQpiHFGW1LNQsLH0XrJxYnrpUU/tVYv
7oj0XwDbp4f3tvEIDiTs5di5bZ2OhyoM3W9RlgqTr98HKcLfhBHaSG4G/8s2kM2u
6ODbYGZfQynyrny3xHeXg0xoXTKwXKM/4eTX1TiUwwzL5dSYgjsYHUzT276BjuYq
I0va1/Y46ixsn3+PsWWoJv/KEU9eVapYIatZCZJ37BHshz4XVs5u2YfcsZ8kyQzU
HCVC1MFnwej9R2m2YyNLW7Nlq5wh6vpuPESP4W04tSuaFfu4yNIQmZVG8YHA6eCE
fPeCp8dML3611yQDu1i31qPB9ZRzAsOSXlpA1lybrm2/j0DGFBrmN+wTXojpQHGX
mQdeUiv10Ng2TAi31YBEOZgdCSsf9Hia7FAgoYtnB7By1P21sT4hyJSpdwuwKTZ5
3eEkso2QDV7iCI7brNuQ+WZUZWsYeVu68cL2LYanBWpa5NGMBDOVONHlGEY2Ggyc
w0ih8HTiU2K1AgMBAAGjgZAwgY0wEwYDVR0lBAwwCgYIKwYBBQUHAwIwNgYDVR0f
BC8wLTAroCmgJ4YlaHR0cDovL3d3dy5leGFtcGxlLmNvbS9leGFtcGxlX2NhLmNy
bDAdBgNVHQ4EFgQUS0LUhfATnFp18baMcg8FTVkePsQwHwYDVR0jBBgwFoAUfkyQ
QA7YVf0atmjvKJTCnl8NKr0wDQYJKoZIhvcNAQELBQADggIBAAAk73RpIxLa+Pzy
Kp2iECB0pr7u8rjqf2321GzG0RH1abgLj3WB17Sh/8gHI7lfmvYFicaKCBpZNvA4
DhFPww3WOuIrpEjnF2Po7AWeemzfGCq4sVhU/2I+k0UIwTBnUjiuWVq+l1OujkxR
rQ4+RU+sjVOIYrbXjd6KE7pvRvMZvDS8nZiksCYzrUTF/9/Vn+Gy7j8+N2roQM4c
aqvE6N1Fh23XqdW103kmagtWfxM/aTzhJSLIsc0W0ece6NoS9JmTlqvdTuFAbIVe
TaFu0fCTjjg9M5by/fWMH9iu+SfmMMQcedxYOZuqJRrH2x7wMS1jLKN4V5tkkMcD
FNf7AgBQ66q9oTwbzVvPEwdgokkkU6KuTOSpDpryEZEPhy+MHwpTzfUQDrcYCoi6
zph8QnDhNlTZHmwklTe+sxYj1V7BtNHZFQ0Xml+eEBFUtqLPh/er2EzrvD4gguq0
jefI9dUlinof/jjT8VBZXXu1Zn5P7P2MC2bJNoDn+ofcui3NwlxqPg+xDVg4tOAf
f9XIRCHn763kwJrOSUOQW8EF9HU1KoTNRfpef5n91E6vNxaQNXvjhts00AVRD1AU
su6SNX+pzfHzM+jELNMQmx+WxnqGfbxxAUQiS+HIT0QhHQqGIfMmILHOMx/SZiLf
e4QIHeaEJpb3LQGhtE3c63ERdDkH
-----END CERTIFICATE-----
