Certificate:
    Data:
        Version: 3 (0x2)
        Serial Number: 3 (0x3)
        Signature Algorithm: sha256WithRSAEncryption
        Issuer: C=FR, ST=Radius, L=Somewhere, O=Example Inc./emailAddress=admin@example.org, CN=Example Certificate Authority
        Validity
            Not Before: May 23 11:44:17 2026 GMT
            Not After : Jul 22 11:44:17 2026 GMT
        Subject: C=FR, ST=Radius, O=Example Inc., CN=Example Server Certificate/emailAddress=admin@example.org
        Subject Public Key Info:
            Public Key Algorithm: rsaEncryption
                Public-Key: (4096 bit)
                Modulus:
                    00:b2:0f:0e:d2:7c:fd:69:07:b9:7f:bf:c6:18:93:
                    3f:06:88:70:cb:f8:a5:f7:1b:2e:b8:f0:bd:23:ad:
                    7a:f8:8a:4f:8a:bc:f8:aa:0c:dc:a5:6f:90:fb:2b:
                    f3:9a:52:16:07:6f:71:8a:3f:6a:c6:85:ec:f0:3e:
                    e9:f9:39:71:19:80:55:44:89:54:56:02:aa:cd:c3:
                    b4:aa:a9:9c:29:f2:6c:e7:53:dd:99:82:4e:f9:c6:
                    83:0e:de:d7:91:7c:11:fa:88:fb:83:78:5f:53:ab:
                    ad:a2:5e:05:0e:4b:45:a0:0e:2e:0e:d9:1c:ab:48:
                    9e:6e:6c:81:51:74:b3:55:85:c8:b4:04:2b:5e:88:
                    9c:be:b5:2d:0a:af:08:47:07:44:1b:9e:fa:37:5c:
                    f3:00:da:e8:9a:32:35:87:b5:67:aa:ee:f0:6d:ef:
                    2c:f6:b1:2c:45:af:82:50:d0:18:1b:65:00:f0:01:
                    60:72:6a:dd:60:f0:44:eb:1b:23:95:72:26:bc:b8:
                    33:e5:9c:90:6c:2e:16:c0:e0:cd:04:48:c4:e3:64:
                    99:be:4a:a1:95:f1:9e:5f:a3:72:55:8a:7d:30:06:
                    eb:4c:90:6a:f1:fe:38:87:cb:0d:83:5c:ca:a9:b9:
                    89:a4:e0:28:a5:c6:bc:ee:e2:b2:31:08:38:56:31:
                    50:f0:d9:ee:9a:7e:99:dc:ac:44:78:44:1d:ac:06:
                    e2:74:8d:d8:fa:b2:97:54:1f:85:b8:53:48:ce:87:
                    c8:46:bd:f3:60:ab:32:de:1c:8f:d4:da:85:5f:03:
                    c9:67:6c:2c:30:bc:c2:69:21:5a:5e:de:3e:19:c8:
                    43:8e:d4:41:6d:7c:a8:8d:21:dd:19:a8:96:85:71:
                    fb:b7:a1:16:a9:47:e0:bf:d3:e3:f6:ac:6c:a9:c6:
                    c9:ee:ee:4c:b6:32:ab:2c:78:79:03:f2:76:09:f2:
                    02:c4:7b:e7:38:16:02:96:c8:4c:7d:dd:ab:f3:7f:
                    d5:71:fb:da:79:f0:a8:40:21:8a:b0:d6:a8:13:51:
                    61:b1:53:13:c2:c7:06:48:75:d5:f8:3d:0f:c9:3e:
                    ce:0a:2d:1f:41:07:52:83:ce:c6:6a:06:e6:ac:b7:
                    14:b5:63:e5:ce:44:9b:31:db:3e:55:e0:a0:7e:e0:
                    4b:fe:43:3b:90:3e:87:ae:d5:1c:e8:ee:94:d3:17:
                    44:1e:4f:53:43:d1:89:b2:d1:bb:98:40:ee:c5:f7:
                    28:95:cc:17:f4:40:a6:31:5c:8d:f4:77:25:ec:ea:
                    00:0f:af:31:44:85:51:82:b8:50:c2:e2:01:7a:89:
                    3e:c3:b5:72:e9:91:d8:82:07:c0:d5:0e:dc:9b:f3:
                    6d:47:c3
                Exponent: 65537 (0x10001)
        X509v3 extensions:
            X509v3 Extended Key Usage: 
                TLS Web Server Authentication
            X509v3 CRL Distribution Points: 
                Full Name:
                  URI:http://www.example.com/example_ca.crl

            X509v3 Certificate Policies: 
                Policy: 1.3.6.1.4.1.40808.1.3.2
            X509v3 Subject Key Identifier: 
                DA:95:C3:34:0D:11:04:8B:F2:7A:28:EE:97:FF:63:A4:E6:C1:B5:CE
            X509v3 Authority Key Identifier: 
                E2:37:6B:4B:7C:9C:90:AE:70:B0:56:BB:C5:3C:88:3E:C1:36:57:79
    Signature Algorithm: sha256WithRSAEncryption
    Signature Value:
        46:b9:44:47:ba:29:25:84:8b:7e:1f:64:f2:ca:7b:4e:91:a5:
        0d:36:0e:09:c3:43:79:0e:5c:13:95:a0:00:8f:d5:fa:40:be:
        41:06:46:2c:f1:fd:4a:59:d6:67:7c:0f:87:19:1d:a3:65:55:
        d1:48:35:8f:25:0e:eb:08:27:88:41:c6:41:90:2c:c3:e7:a4:
        dc:0e:54:db:35:13:10:a2:cb:81:40:dd:de:77:7d:20:3e:b2:
        eb:30:51:9b:53:49:5c:3d:7f:cd:62:d7:6f:a8:a4:7e:80:d8:
        29:21:18:76:64:04:9f:b4:c4:32:49:61:52:34:f5:b4:16:3a:
        d3:13:1f:9c:ae:08:f3:2d:58:87:73:8e:0a:df:b5:29:4e:d4:
        a9:cf:52:fb:3d:8f:e8:cb:6d:ff:4a:9a:91:db:8d:19:8f:fe:
        4b:e0:07:fd:2e:e4:0c:84:26:c1:55:02:93:f9:44:0e:f4:f2:
        ab:7c:21:95:8c:c3:7b:f5:31:30:15:46:3b:83:bf:6c:71:12:
        d2:08:21:39:2c:f2:4f:ae:f2:c2:c0:9c:74:dd:c2:e8:3d:b8:
        3c:26:df:13:2b:1a:ec:9b:02:4c:0b:36:61:48:46:52:34:cb:
        f9:f2:ac:ba:dc:5b:51:97:aa:06:02:b6:48:45:ae:02:83:c4:
        d8:58:03:bb:77:0a:1c:2a:e5:56:88:1f:9c:50:c8:be:24:8e:
        66:89:51:27:1a:c1:41:d7:fb:88:16:93:e8:0f:f8:16:55:45:
        a2:df:95:12:d6:2d:e3:ac:19:54:fa:ff:fc:e3:5d:ee:6b:92:
        88:f0:74:7a:d4:c2:db:83:db:f5:6a:bf:41:fc:df:ea:97:0f:
        71:ea:6f:a9:c7:05:a9:29:33:9b:1c:fe:2b:95:b1:7e:1c:be:
        78:52:5e:40:6f:ff:79:cc:22:9a:4d:f5:06:e4:e9:3e:5c:64:
        ae:f0:0f:69:71:bb:5f:60:8b:d7:b1:15:46:20:dd:ff:6c:17:
        8b:3c:31:1e:24:59:7e:c0:c4:21:44:92:0a:22:a8:81:e6:00:
        a5:77:7b:96:29:f6:5d:53:f8:9e:38:d6:45:e6:7a:58:84:21:
        e2:69:4d:30:a5:69:3f:10:24:ad:a4:03:92:48:b9:96:f5:d6:
        3d:35:43:33:6c:4e:39:44:62:bc:b7:2d:2e:ff:f3:b0:e1:bf:
        18:14:3d:20:bc:b0:84:af:12:84:21:71:88:eb:8c:e0:46:94:
        59:e5:14:ef:d2:30:ba:65:9b:22:c5:2f:7d:76:5b:50:36:e1:
        5b:d2:e7:46:20:a5:e7:2c:66:7b:f6:5f:ec:f9:bc:ea:b6:c5:
        11:f3:5b:08:a8:22:59:a3
-----BEGIN CERTIFICATE-----
MIIGNjCCBB6gAwIBAgIBAzANBgkqhkiG9w0BAQsFADCBkzELMAkGA1UEBhMCRlIx
DzANBgNVBAgMBlJhZGl1czESMBAGA1UEBwwJU29tZXdoZXJlMRUwEwYDVQQKDAxF
eGFtcGxlIEluYy4xIDAeBgkqhkiG9w0BCQEWEWFkbWluQGV4YW1wbGUub3JnMSYw
JAYDVQQDDB1FeGFtcGxlIENlcnRpZmljYXRlIEF1dGhvcml0eTAeFw0yNjA1MjMx
MTQ0MTdaFw0yNjA3MjIxMTQ0MTdaMHwxCzAJBgNVBAYTAkZSMQ8wDQYDVQQIDAZS
YWRpdXMxFTATBgNVBAoMDEV4YW1wbGUgSW5jLjEjMCEGA1UEAwwaRXhhbXBsZSBT
ZXJ2ZXIgQ2VydGlmaWNhdGUxIDAeBgkqhkiG9w0BCQEWEWFkbWluQGV4YW1wbGUu
b3JnMIICIjANBgkqhkiG9w0BAQEFAAOCAg8AMIICCgKCAgEAsg8O0nz9aQe5f7/G
GJM/Bohwy/il9xsuuPC9I616+IpPirz4qgzcpW+Q+yvzmlIWB29xij9qxoXs8D7p
+TlxGYBVRIlUVgKqzcO0qqmcKfJs51PdmYJO+caDDt7XkXwR+oj7g3hfU6utol4F
DktFoA4uDtkcq0iebmyBUXSzVYXItAQrXoicvrUtCq8IRwdEG576N1zzANromjI1
h7Vnqu7wbe8s9rEsRa+CUNAYG2UA8AFgcmrdYPBE6xsjlXImvLgz5ZyQbC4WwODN
BEjE42SZvkqhlfGeX6NyVYp9MAbrTJBq8f44h8sNg1zKqbmJpOAopca87uKyMQg4
VjFQ8Nnumn6Z3KxEeEQdrAbidI3Y+rKXVB+FuFNIzofIRr3zYKsy3hyP1NqFXwPJ
Z2wsMLzCaSFaXt4+GchDjtRBbXyojSHdGaiWhXH7t6EWqUfgv9Pj9qxsqcbJ7u5M
tjKrLHh5A/J2CfICxHvnOBYClshMfd2r83/VcfvaefCoQCGKsNaoE1FhsVMTwscG
SHXV+D0PyT7OCi0fQQdSg87GagbmrLcUtWPlzkSbMds+VeCgfuBL/kM7kD6HrtUc
6O6U0xdEHk9TQ9GJstG7mEDuxfcolcwX9ECmMVyN9Hcl7OoAD68xRIVRgrhQwuIB
eok+w7Vy6ZHYggfA1Q7cm/NtR8MCAwEAAaOBqjCBpzATBgNVHSUEDDAKBggrBgEF
BQcDATA2BgNVHR8ELzAtMCugKaAnhiVodHRwOi8vd3d3LmV4YW1wbGUuY29tL2V4
YW1wbGVfY2EuY3JsMBgGA1UdIAQRMA8wDQYLKwYBBAGCvmgBAwIwHQYDVR0OBBYE
FNqVwzQNEQSL8noo7pf/Y6TmwbXOMB8GA1UdIwQYMBaAFOI3a0t8nJCucLBWu8U8
iD7BNld5MA0GCSqGSIb3DQEBCwUAA4ICAQBGuURHuiklhIt+H2TyyntOkaUNNg4J
w0N5DlwTlaAAj9X6QL5BBkYs8f1KWdZnfA+HGR2jZVXRSDWPJQ7rCCeIQcZBkCzD
56TcDlTbNRMQosuBQN3ed30gPrLrMFGbU0lcPX/NYtdvqKR+gNgpIRh2ZASftMQy
SWFSNPW0FjrTEx+crgjzLViHc44K37UpTtSpz1L7PY/oy23/SpqR240Zj/5L4Af9
LuQMhCbBVQKT+UQO9PKrfCGVjMN79TEwFUY7g79scRLSCCE5LPJPrvLCwJx03cLo
Pbg8Jt8TKxrsmwJMCzZhSEZSNMv58qy63FtRl6oGArZIRa4Cg8TYWAO7dwocKuVW
iB+cUMi+JI5miVEnGsFB1/uIFpPoD/gWVUWi35US1i3jrBlU+v/8413ua5KI8HR6
1MLbg9v1ar9B/N/qlw9x6m+pxwWpKTObHP4rlbF+HL54Ul5Ab/95zCKaTfUG5Ok+
XGSu8A9pcbtfYIvXsRVGIN3/bBeLPDEeJFl+wMQhRJIKIqiB5gCld3uWKfZdU/ie
ONZF5npYhCHiaU0wpWk/ECStpAOSSLmW9dY9NUMzbE45RGK8ty0u//Ow4b8YFD0g
vLCErxKEIXGI64zgRpRZ5RTv0jC6ZZsixS99dltQNuFb0udGIKXnLGZ79l/s+bzq
tsUR81sIqCJZow==
-----END CERTIFICATE-----
